target datalayout = "e-m:e-p270:32:32-p271:32:32-p272:64:64-i64:64-i128:128-f80:128-n8:16:32:64-S128"
target triple = "x86_64-pc-linux-gnu"

%"struct.std::atomic" = type { %"struct.std::__atomic_base" }
%"struct.std::__atomic_base" = type { i8 }
%"class.pxrInternal_v0_24__pxrReserved__::Tf_MallocTagStringMatchTable" = type { %"class.std::vector" }
%"class.std::vector" = type { %"struct.std::_Vector_base" }
%"struct.std::_Vector_base" = type { %"struct.std::_Vector_base<pxrInternal_v0_24__pxrReserved__::Tf_MallocTagStringMatchTable::_MatchString, std::allocator<pxrInternal_v0_24__pxrReserved__::Tf_MallocTagStringMatchTable::_MatchString>>::_Vector_impl" }
%"struct.std::_Vector_base<pxrInternal_v0_24__pxrReserved__::Tf_MallocTagStringMatchTable::_MatchString, std::allocator<pxrInternal_v0_24__pxrReserved__::Tf_MallocTagStringMatchTable::_MatchString>>::_Vector_impl" = type { %"struct.std::_Vector_base<pxrInternal_v0_24__pxrReserved__::Tf_MallocTagStringMatchTable::_MatchString, std::allocator<pxrInternal_v0_24__pxrReserved__::Tf_MallocTagStringMatchTable::_MatchString>>::_Vector_impl_data" }
%"struct.std::_Vector_base<pxrInternal_v0_24__pxrReserved__::Tf_MallocTagStringMatchTable::_MatchString, std::allocator<pxrInternal_v0_24__pxrReserved__::Tf_MallocTagStringMatchTable::_MatchString>>::_Vector_impl_data" = type { ptr, ptr, ptr }
%"struct.pxrInternal_v0_24__pxrReserved__::Tf_MallocGlobalData" = type { %"class.pxrInternal_v0_24__pxrReserved__::TfBigRWMutex", ptr, %"struct.std::atomic.17", %"struct.std::atomic.17", %"class.tbb::detail::d2::concurrent_hash_map", %"class.tbb::detail::d2::concurrent_hash_map.25", %"class.tbb::detail::d2::concurrent_hash_map.30", %"class.pxrInternal_v0_24__pxrReserved__::Tf_MallocTagStringMatchTable", %"class.pxrInternal_v0_24__pxrReserved__::Tf_MallocTagStringMatchTable", %"class.tbb::detail::d2::concurrent_hash_map.35" }
%"class.pxrInternal_v0_24__pxrReserved__::TfBigRWMutex" = type <{ %"class.std::unique_ptr", %"struct.std::atomic", [7 x i8] }>
%"class.std::unique_ptr" = type { %"struct.std::__uniq_ptr_data" }
%"struct.std::__uniq_ptr_data" = type { %"class.std::__uniq_ptr_impl" }
%"class.std::__uniq_ptr_impl" = type { %"class.std::tuple" }
%"class.std::tuple" = type { %"struct.std::_Tuple_impl" }
%"struct.std::_Tuple_impl" = type { %"struct.std::_Head_base.16" }
%"struct.std::_Head_base.16" = type { ptr }
%"struct.std::atomic.17" = type { %"struct.std::__atomic_base.18" }
%"struct.std::__atomic_base.18" = type { i64 }
%"class.tbb::detail::d2::concurrent_hash_map" = type <{ %"class.tbb::detail::d2::hash_map_base", [8 x i8] }>
%"class.tbb::detail::d2::hash_map_base" = type { [8 x i8], %"struct.std::atomic.19", %"struct.std::atomic.19", [2 x %"struct.tbb::detail::d2::hash_map_base<tbb::detail::d1::tbb_allocator<std::pair<const void *const, pxrInternal_v0_24__pxrReserved__::Tf_MallocBlockInfo>>, tbb::detail::d1::spin_rw_mutex>::bucket"], [64 x %"struct.std::atomic.23"] }
%"struct.std::atomic.19" = type { %"struct.std::__atomic_base.20" }
%"struct.std::__atomic_base.20" = type { i64 }
%"struct.tbb::detail::d2::hash_map_base<tbb::detail::d1::tbb_allocator<std::pair<const void *const, pxrInternal_v0_24__pxrReserved__::Tf_MallocBlockInfo>>, tbb::detail::d1::spin_rw_mutex>::bucket" = type { %"class.tbb::detail::d1::spin_rw_mutex", %"struct.std::atomic.21" }
%"class.tbb::detail::d1::spin_rw_mutex" = type { %"struct.std::atomic.17" }
%"struct.std::atomic.21" = type { %"struct.std::__atomic_base.22" }
%"struct.std::__atomic_base.22" = type { ptr }
%"struct.std::atomic.23" = type { %"struct.std::__atomic_base.24" }
%"struct.std::__atomic_base.24" = type { ptr }
%"class.tbb::detail::d2::concurrent_hash_map.25" = type <{ %"class.tbb::detail::d2::hash_map_base.26", [8 x i8] }>
%"class.tbb::detail::d2::hash_map_base.26" = type { [8 x i8], %"struct.std::atomic.19", %"struct.std::atomic.19", [2 x %"struct.tbb::detail::d2::hash_map_base<tbb::detail::d1::tbb_allocator<std::pair<const char *const, pxrInternal_v0_24__pxrReserved__::Tf_MallocCallSite *>>, tbb::detail::d1::spin_rw_mutex>::bucket"], [64 x %"struct.std::atomic.27"] }
%"struct.tbb::detail::d2::hash_map_base<tbb::detail::d1::tbb_allocator<std::pair<const char *const, pxrInternal_v0_24__pxrReserved__::Tf_MallocCallSite *>>, tbb::detail::d1::spin_rw_mutex>::bucket" = type { %"class.tbb::detail::d1::spin_rw_mutex", %"struct.std::atomic.21" }
%"struct.std::atomic.27" = type { %"struct.std::__atomic_base.28" }
%"struct.std::__atomic_base.28" = type { ptr }
%"class.tbb::detail::d2::concurrent_hash_map.30" = type <{ %"class.tbb::detail::d2::hash_map_base.31", [8 x i8] }>
%"class.tbb::detail::d2::hash_map_base.31" = type { [8 x i8], %"struct.std::atomic.19", %"struct.std::atomic.19", [2 x %"struct.tbb::detail::d2::hash_map_base<tbb::detail::d1::tbb_allocator<std::pair<const std::pair<pxrInternal_v0_24__pxrReserved__::Tf_MallocPathNode *, pxrInternal_v0_24__pxrReserved__::Tf_MallocCallSite *>, pxrInternal_v0_24__pxrReserved__::Tf_MallocPathNode *>>, tbb::detail::d1::spin_rw_mutex>::bucket"], [64 x %"struct.std::atomic.32"] }
%"struct.tbb::detail::d2::hash_map_base<tbb::detail::d1::tbb_allocator<std::pair<const std::pair<pxrInternal_v0_24__pxrReserved__::Tf_MallocPathNode *, pxrInternal_v0_24__pxrReserved__::Tf_MallocCallSite *>, pxrInternal_v0_24__pxrReserved__::Tf_MallocPathNode *>>, tbb::detail::d1::spin_rw_mutex>::bucket" = type { %"class.tbb::detail::d1::spin_rw_mutex", %"struct.std::atomic.21" }
%"struct.std::atomic.32" = type { %"struct.std::__atomic_base.33" }
%"struct.std::__atomic_base.33" = type { ptr }
%"class.tbb::detail::d2::concurrent_hash_map.35" = type <{ %"class.tbb::detail::d2::hash_map_base.36", [8 x i8] }>
%"class.tbb::detail::d2::hash_map_base.36" = type { [8 x i8], %"struct.std::atomic.19", %"struct.std::atomic.19", [2 x %"struct.tbb::detail::d2::hash_map_base<tbb::detail::d1::tbb_allocator<std::pair<const void *const, pxrInternal_v0_24__pxrReserved__::TfMallocTag::CallStackInfo>>, tbb::detail::d1::spin_rw_mutex>::bucket"], [64 x %"struct.std::atomic.37"] }
%"struct.tbb::detail::d2::hash_map_base<tbb::detail::d1::tbb_allocator<std::pair<const void *const, pxrInternal_v0_24__pxrReserved__::TfMallocTag::CallStackInfo>>, tbb::detail::d1::spin_rw_mutex>::bucket" = type { %"class.tbb::detail::d1::spin_rw_mutex", %"struct.std::atomic.21" }
%"struct.std::atomic.37" = type { %"struct.std::__atomic_base.38" }
%"struct.std::__atomic_base.38" = type { ptr }

@_ZN32pxrInternal_v0_24__pxrReserved__L17_mallocGlobalDataE = internal global ptr null, align 8

; Function Attrs: mustprogress nounwind uwtable
define linkonce_odr noundef i32 @_ZStanSt12memory_orderSt23__memory_order_modifier(i32 noundef %0, i32 noundef %1) #3 comdat {
  %3 = alloca i32, align 4
  %4 = alloca i32, align 4
  store i32 %0, ptr %3, align 4
  store i32 %1, ptr %4, align 4
  %5 = load i32, ptr %3, align 4
  %6 = load i32, ptr %4, align 4
  %7 = and i32 %5, %6
  ret i32 %7
}

; Function Attrs: mustprogress nounwind uwtable
define linkonce_odr noundef i64 @_ZNKSt13__atomic_baseIlEcvlEv(ptr noundef nonnull align 8 dereferenceable(8) %0) #3 comdat align 2 {
  %2 = alloca ptr, align 8
  %3 = alloca i32, align 4
  %4 = alloca i32, align 4
  %5 = alloca i64, align 8
  %6 = alloca ptr, align 8
  store ptr %0, ptr %6, align 8
  %7 = load ptr, ptr %6, align 8
  store ptr %7, ptr %2, align 8
  store i32 5, ptr %3, align 4
  %8 = load ptr, ptr %2, align 8
  %9 = load i32, ptr %3, align 4
  %10 = call noundef i32 @_ZStanSt12memory_orderSt23__memory_order_modifier(i32 noundef %9, i32 noundef 65535)
  store i32 %10, ptr %4, align 4
  %11 = load i32, ptr %3, align 4
  switch i32 %11, label %12 [
    i32 1, label %14
    i32 2, label %14
    i32 5, label %16
  ]

12:                                               ; preds = %1
  %13 = load atomic i64, ptr %8 monotonic, align 8
  store i64 %13, ptr %5, align 8
  br label %18

14:                                               ; preds = %1, %1
  %15 = load atomic i64, ptr %8 acquire, align 8
  store i64 %15, ptr %5, align 8
  br label %18

16:                                               ; preds = %1
  %17 = load atomic i64, ptr %8 seq_cst, align 8
  store i64 %17, ptr %5, align 8
  br label %18

18:                                               ; preds = %16, %14, %12
  %19 = load i64, ptr %5, align 8
  ret i64 %19
}

; Function Attrs: mustprogress nounwind uwtable
define noundef i64 @_ZN32pxrInternal_v0_24__pxrReserved__11TfMallocTag16GetMaxTotalBytesEv() #3 align 2 {
  %1 = alloca i64, align 8
  %2 = load ptr, ptr @_ZN32pxrInternal_v0_24__pxrReserved__L17_mallocGlobalDataE, align 8
  %3 = icmp ne ptr %2, null
  br i1 %3, label %5, label %4

4:                                                ; preds = %0
  store i64 0, ptr %1, align 8
  br label %9

5:                                                ; preds = %0
  %6 = load ptr, ptr @_ZN32pxrInternal_v0_24__pxrReserved__L17_mallocGlobalDataE, align 8
  %7 = getelementptr inbounds nuw %"struct.pxrInternal_v0_24__pxrReserved__::Tf_MallocGlobalData", ptr %6, i32 0, i32 3
  %8 = call noundef i64 @_ZNKSt13__atomic_baseIlEcvlEv(ptr noundef nonnull align 8 dereferenceable(8) %7) #6
  store i64 %8, ptr %1, align 8
  br label %9

9:                                                ; preds = %5, %4
  %10 = load i64, ptr %1, align 8
  ret i64 %10
}